; Function Attrs: mustprogress uwtable
define hidden noundef i32 @_ZN4cvc58internal6theory11quantifiers25QuantifiersBoundInference15getBoundVarTypeENS0_12NodeTemplateILb1EEES5_(ptr noundef nonnull align 8 dereferenceable(72) %0, ptr noundef readonly captures(none) %1, ptr noundef readonly captures(none) %2) local_unnamed_addr #4 align 2 personality ptr @__gxx_personality_v0 {
  %4 = alloca %"class.cvc5::internal::NodeTemplate", align 8
  %5 = alloca %"class.cvc5::internal::NodeTemplate", align 8
  %6 = alloca %"class.cvc5::internal::NodeTemplate", align 8
  %7 = alloca %"class.cvc5::internal::NodeTemplate", align 8
  %8 = getelementptr inbounds nuw i8, ptr %0, i64 64
  %9 = load ptr, ptr %8, align 8, !tbaa !23
  %.not = icmp eq ptr %9, null
  br i1 %.not, label %73, label %10

10:                                               ; preds = %3
  %11 = load ptr, ptr %1, align 8, !tbaa !42
  store ptr %11, ptr %4, align 8, !tbaa !42
  %12 = load i64, ptr %11, align 8
  %13 = lshr i64 %12, 40
  %14 = trunc nuw nsw i64 %13 to i32
  %15 = and i32 %14, 1048575
  %16 = icmp samesign ult i32 %15, 1048574
  br i1 %16, label %17, label %22, !prof !35

17:                                               ; preds = %10
  %18 = add i64 %12, 1099511627776
  %19 = and i64 %18, 1152920405095219200
  %20 = and i64 %12, -1152920405095219201
  %21 = or disjoint i64 %19, %20
  store i64 %21, ptr %11, align 8
  br label %_ZN4cvc58internal12NodeTemplateILb1EEC2ERKS2_.exit

22:                                               ; preds = %10
  %23 = icmp eq i32 %15, 1048574
  br i1 %23, label %24, label %_ZN4cvc58internal12NodeTemplateILb1EEC2ERKS2_.exit, !prof !36

24:                                               ; preds = %22
  %25 = or i64 %12, 1152920405095219200
  store i64 %25, ptr %11, align 8
  tail call void @_ZN4cvc58internal4expr9NodeValue20markRefCountMaxedOutEv(ptr noundef nonnull align 8 dereferenceable(24) %11)
  br label %_ZN4cvc58internal12NodeTemplateILb1EEC2ERKS2_.exit

_ZN4cvc58internal12NodeTemplateILb1EEC2ERKS2_.exit: ; preds = %17, %22, %24
  %26 = load ptr, ptr %2, align 8, !tbaa !42
  store ptr %26, ptr %5, align 8, !tbaa !42
  %27 = load i64, ptr %26, align 8
  %28 = lshr i64 %27, 40
  %29 = trunc nuw nsw i64 %28 to i32
  %30 = and i32 %29, 1048575
  %31 = icmp samesign ult i32 %30, 1048574
  br i1 %31, label %32, label %37, !prof !35

32:                                               ; preds = %_ZN4cvc58internal12NodeTemplateILb1EEC2ERKS2_.exit
  %33 = add i64 %27, 1099511627776
  %34 = and i64 %33, 1152920405095219200
  %35 = and i64 %27, -1152920405095219201
  %36 = or disjoint i64 %34, %35
  store i64 %36, ptr %26, align 8
  br label %_ZN4cvc58internal12NodeTemplateILb1EEC2ERKS2_.exit18

37:                                               ; preds = %_ZN4cvc58internal12NodeTemplateILb1EEC2ERKS2_.exit
  %38 = icmp eq i32 %30, 1048574
  br i1 %38, label %39, label %_ZN4cvc58internal12NodeTemplateILb1EEC2ERKS2_.exit18, !prof !36

39:                                               ; preds = %37
  %40 = or i64 %27, 1152920405095219200
  store i64 %40, ptr %26, align 8
  invoke void @_ZN4cvc58internal4expr9NodeValue20markRefCountMaxedOutEv(ptr noundef nonnull align 8 dereferenceable(24) %26)
          to label %_ZN4cvc58internal12NodeTemplateILb1EEC2ERKS2_.exit18 unwind label %69

_ZN4cvc58internal12NodeTemplateILb1EEC2ERKS2_.exit18: ; preds = %37, %32, %39
  %41 = invoke noundef i32 @_ZNK4cvc58internal6theory11quantifiers15BoundedIntegers15getBoundVarTypeENS0_12NodeTemplateILb1EEES5_(ptr noundef nonnull align 8 dereferenceable(768) %9, ptr noundef nonnull %4, ptr noundef nonnull %5)
          to label %42 unwind label %71

42:                                               ; preds = %_ZN4cvc58internal12NodeTemplateILb1EEC2ERKS2_.exit18
  %43 = load ptr, ptr %5, align 8, !tbaa !42
  %44 = load i64, ptr %43, align 8
  %45 = and i64 %44, 1152920405095219200
  %.not.i.i = icmp eq i64 %45, 1152920405095219200
  br i1 %.not.i.i, label %_ZN4cvc58internal12NodeTemplateILb1EED2Ev.exit, label %46, !prof !36

46:                                               ; preds = %42
  %47 = add i64 %44, 1152920405095219200
  %48 = and i64 %47, 1152920405095219200
  %49 = and i64 %44, -1152920405095219201
  %50 = or disjoint i64 %48, %49
  store i64 %50, ptr %43, align 8
  %51 = icmp eq i64 %48, 0
  br i1 %51, label %52, label %_ZN4cvc58internal12NodeTemplateILb1EED2Ev.exit, !prof !36

52:                                               ; preds = %46
  invoke void @_ZN4cvc58internal4expr9NodeValue15markForDeletionEv(ptr noundef nonnull align 8 dereferenceable(24) %43)
          to label %_ZN4cvc58internal12NodeTemplateILb1EED2Ev.exit unwind label %53

53:                                               ; preds = %52
  %54 = landingpad { ptr, i32 }
          catch ptr null
  %55 = extractvalue { ptr, i32 } %54, 0
  call void @__clang_call_terminate(ptr %55) #21
  unreachable

_ZN4cvc58internal12NodeTemplateILb1EED2Ev.exit:   ; preds = %42, %46, %52
  %56 = load ptr, ptr %4, align 8, !tbaa !42
  %57 = load i64, ptr %56, align 8
  %58 = and i64 %57, 1152920405095219200
  %.not.i.i19 = icmp eq i64 %58, 1152920405095219200
  br i1 %.not.i.i19, label %_ZN4cvc58internal12NodeTemplateILb1EED2Ev.exit20, label %59, !prof !36

59:                                               ; preds = %_ZN4cvc58internal12NodeTemplateILb1EED2Ev.exit
  %60 = add i64 %57, 1152920405095219200
  %61 = and i64 %60, 1152920405095219200
  %62 = and i64 %57, -1152920405095219201
  %63 = or disjoint i64 %61, %62
  store i64 %63, ptr %56, align 8
  %64 = icmp eq i64 %61, 0
  br i1 %64, label %65, label %_ZN4cvc58internal12NodeTemplateILb1EED2Ev.exit20, !prof !36

65:                                               ; preds = %59
  invoke void @_ZN4cvc58internal4expr9NodeValue15markForDeletionEv(ptr noundef nonnull align 8 dereferenceable(24) %56)
          to label %_ZN4cvc58internal12NodeTemplateILb1EED2Ev.exit20 unwind label %66

66:                                               ; preds = %65
  %67 = landingpad { ptr, i32 }
          catch ptr null
  %68 = extractvalue { ptr, i32 } %67, 0
  call void @__clang_call_terminate(ptr %68) #21
  unreachable

_ZN4cvc58internal12NodeTemplateILb1EED2Ev.exit20: ; preds = %_ZN4cvc58internal12NodeTemplateILb1EED2Ev.exit, %59, %65
  %.not14.not = icmp eq i32 %41, 4
  br i1 %.not14.not, label %73, label %_ZN4cvc58internal12NodeTemplateILb1EED2Ev.exit27

69:                                               ; preds = %39
  %70 = landingpad { ptr, i32 }
          cleanup
  br label %136

71:                                               ; preds = %_ZN4cvc58internal12NodeTemplateILb1EEC2ERKS2_.exit18
  %72 = landingpad { ptr, i32 }
          cleanup
  call void @_ZN4cvc58internal12NodeTemplateILb1EED2Ev(ptr noundef nonnull align 8 dereferenceable(8) %5) #22
  br label %136

73:                                               ; preds = %_ZN4cvc58internal12NodeTemplateILb1EED2Ev.exit20, %3
  %74 = load ptr, ptr %1, align 8, !tbaa !42
  store ptr %74, ptr %6, align 8, !tbaa !42
  %75 = load i64, ptr %74, align 8
  %76 = lshr i64 %75, 40
  %77 = trunc nuw nsw i64 %76 to i32
  %78 = and i32 %77, 1048575
  %79 = icmp samesign ult i32 %78, 1048574
  br i1 %79, label %80, label %85, !prof !35

80:                                               ; preds = %73
  %81 = add i64 %75, 1099511627776
  %82 = and i64 %81, 1152920405095219200
  %83 = and i64 %75, -1152920405095219201
  %84 = or disjoint i64 %82, %83
  store i64 %84, ptr %74, align 8
  br label %_ZN4cvc58internal12NodeTemplateILb1EEC2ERKS2_.exit21

85:                                               ; preds = %73
  %86 = icmp eq i32 %78, 1048574
  br i1 %86, label %87, label %_ZN4cvc58internal12NodeTemplateILb1EEC2ERKS2_.exit21, !prof !36

87:                                               ; preds = %85
  %88 = or i64 %75, 1152920405095219200
  store i64 %88, ptr %74, align 8
  call void @_ZN4cvc58internal4expr9NodeValue20markRefCountMaxedOutEv(ptr noundef nonnull align 8 dereferenceable(24) %74)
  br label %_ZN4cvc58internal12NodeTemplateILb1EEC2ERKS2_.exit21

_ZN4cvc58internal12NodeTemplateILb1EEC2ERKS2_.exit21: ; preds = %80, %85, %87
  %89 = load ptr, ptr %2, align 8, !tbaa !42
  store ptr %89, ptr %7, align 8, !tbaa !42
  %90 = load i64, ptr %89, align 8
  %91 = lshr i64 %90, 40
  %92 = trunc nuw nsw i64 %91 to i32
  %93 = and i32 %92, 1048575
  %94 = icmp samesign ult i32 %93, 1048574
  br i1 %94, label %95, label %100, !prof !35

95:                                               ; preds = %_ZN4cvc58internal12NodeTemplateILb1EEC2ERKS2_.exit21
  %96 = add i64 %90, 1099511627776
  %97 = and i64 %96, 1152920405095219200
  %98 = and i64 %90, -1152920405095219201
  %99 = or disjoint i64 %97, %98
  store i64 %99, ptr %89, align 8
  br label %_ZN4cvc58internal12NodeTemplateILb1EEC2ERKS2_.exit23

100:                                              ; preds = %_ZN4cvc58internal12NodeTemplateILb1EEC2ERKS2_.exit21
  %101 = icmp eq i32 %93, 1048574
  br i1 %101, label %102, label %_ZN4cvc58internal12NodeTemplateILb1EEC2ERKS2_.exit23, !prof !36

102:                                              ; preds = %100
  %103 = or i64 %90, 1152920405095219200
  store i64 %103, ptr %89, align 8
  invoke void @_ZN4cvc58internal4expr9NodeValue20markRefCountMaxedOutEv(ptr noundef nonnull align 8 dereferenceable(24) %89)
          to label %_ZN4cvc58internal12NodeTemplateILb1EEC2ERKS2_.exit23 unwind label %132

_ZN4cvc58internal12NodeTemplateILb1EEC2ERKS2_.exit23: ; preds = %100, %95, %102
  %104 = invoke noundef zeroext i1 @_ZN4cvc58internal6theory11quantifiers25QuantifiersBoundInference13isFiniteBoundENS0_12NodeTemplateILb1EEES5_(ptr noundef nonnull align 8 dereferenceable(72) %0, ptr noundef nonnull %6, ptr noundef nonnull %7)
          to label %105 unwind label %134

105:                                              ; preds = %_ZN4cvc58internal12NodeTemplateILb1EEC2ERKS2_.exit23
  %106 = select i1 %104, i32 0, i32 4
  %107 = load ptr, ptr %7, align 8, !tbaa !42
  %108 = load i64, ptr %107, align 8
  %109 = and i64 %108, 1152920405095219200
  %.not.i.i24 = icmp eq i64 %109, 1152920405095219200
  br i1 %.not.i.i24, label %_ZN4cvc58internal12NodeTemplateILb1EED2Ev.exit25, label %110, !prof !36

110:                                              ; preds = %105
  %111 = add i64 %108, 1152920405095219200
  %112 = and i64 %111, 1152920405095219200
  %113 = and i64 %108, -1152920405095219201
  %114 = or disjoint i64 %112, %113
  store i64 %114, ptr %107, align 8
  %115 = icmp eq i64 %112, 0
  br i1 %115, label %116, label %_ZN4cvc58internal12NodeTemplateILb1EED2Ev.exit25, !prof !36

116:                                              ; preds = %110
  invoke void @_ZN4cvc58internal4expr9NodeValue15markForDeletionEv(ptr noundef nonnull align 8 dereferenceable(24) %107)
          to label %_ZN4cvc58internal12NodeTemplateILb1EED2Ev.exit25 unwind label %117

117:                                              ; preds = %116
  %118 = landingpad { ptr, i32 }
          catch ptr null
  %119 = extractvalue { ptr, i32 } %118, 0
  call void @__clang_call_terminate(ptr %119) #21
  unreachable

_ZN4cvc58internal12NodeTemplateILb1EED2Ev.exit25: ; preds = %105, %110, %116
  %120 = load i64, ptr %74, align 8
  %121 = and i64 %120, 1152920405095219200
  %.not.i.i26 = icmp eq i64 %121, 1152920405095219200
  br i1 %.not.i.i26, label %_ZN4cvc58internal12NodeTemplateILb1EED2Ev.exit27, label %122, !prof !36

122:                                              ; preds = %_ZN4cvc58internal12NodeTemplateILb1EED2Ev.exit25
  %123 = add i64 %120, 1152920405095219200
  %124 = and i64 %123, 1152920405095219200
  %125 = and i64 %120, -1152920405095219201
  %126 = or disjoint i64 %124, %125
  store i64 %126, ptr %74, align 8
  %127 = icmp eq i64 %124, 0
  br i1 %127, label %128, label %_ZN4cvc58internal12NodeTemplateILb1EED2Ev.exit27, !prof !36

128:                                              ; preds = %122
  invoke void @_ZN4cvc58internal4expr9NodeValue15markForDeletionEv(ptr noundef nonnull align 8 dereferenceable(24) %74)
          to label %_ZN4cvc58internal12NodeTemplateILb1EED2Ev.exit27 unwind label %129

129:                                              ; preds = %128
  %130 = landingpad { ptr, i32 }
          catch ptr null
  %131 = extractvalue { ptr, i32 } %130, 0
  call void @__clang_call_terminate(ptr %131) #21
  unreachable

132:                                              ; preds = %102
  %133 = landingpad { ptr, i32 }
          cleanup
  br label %136

134:                                              ; preds = %_ZN4cvc58internal12NodeTemplateILb1EEC2ERKS2_.exit23
  %135 = landingpad { ptr, i32 }
          cleanup
  call void @_ZN4cvc58internal12NodeTemplateILb1EED2Ev(ptr noundef nonnull align 8 dereferenceable(8) %7) #22
  br label %136

_ZN4cvc58internal12NodeTemplateILb1EED2Ev.exit27: ; preds = %128, %122, %_ZN4cvc58internal12NodeTemplateILb1EED2Ev.exit25, %_ZN4cvc58internal12NodeTemplateILb1EED2Ev.exit20
  %.111 = phi i32 [ %41, %_ZN4cvc58internal12NodeTemplateILb1EED2Ev.exit20 ], [ %106, %_ZN4cvc58internal12NodeTemplateILb1EED2Ev.exit25 ], [ %106, %122 ], [ %106, %128 ]
  ret i32 %.111

136:                                              ; preds = %132, %134, %69, %71
  %.sink = phi ptr [ %4, %71 ], [ %4, %69 ], [ %6, %134 ], [ %6, %132 ]
  %.pn15.pn = phi { ptr, i32 } [ %72, %71 ], [ %70, %69 ], [ %135, %134 ], [ %133, %132 ]
  call void @_ZN4cvc58internal12NodeTemplateILb1EED2Ev(ptr noundef nonnull align 8 dereferenceable(8) %.sink) #22
  resume { ptr, i32 } %.pn15.pn
}